; Function Attrs: mustprogress uwtable
define internal void @_ZN7mitsubaL21jpeg_init_destinationEP20jpeg_compress_struct(ptr nocapture noundef readonly %0) #0 {
  %2 = getelementptr inbounds i8, ptr %0, i64 40
  %3 = load ptr, ptr %2, align 8
  %4 = tail call noalias noundef nonnull dereferenceable(32768) ptr @_Znam(i64 noundef 32768) #34
  %5 = getelementptr inbounds i8, ptr %3, i64 40
  store ptr %4, ptr %5, align 8
  store ptr %4, ptr %3, align 8
  %6 = getelementptr inbounds i8, ptr %3, i64 8
  store i64 32768, ptr %6, align 8
  ret void
}